target datalayout = "e-m:e-p270:32:32-p271:32:32-p272:64:64-i64:64-i128:128-f80:128-n8:16:32:64-S128"
target triple = "x86_64-pc-linux-gnu"

%struct.HWMapDescriptor = type { ptr, ptr, ptr, ptr }
%struct.AVDRMFrameDescriptor = type { i32, [4 x %struct.AVDRMObjectDescriptor], i32, [4 x %struct.AVDRMLayerDescriptor] }
%struct.AVDRMObjectDescriptor = type { i32, i64, i64 }
%struct.AVDRMLayerDescriptor = type { i32, i32, [4 x %struct.AVDRMPlaneDescriptor] }
%struct.AVDRMPlaneDescriptor = type { i32, i64, i64 }

; Function Attrs: nounwind uwtable
define internal void @vaapi_unmap_to_drm_esh(ptr noundef %0, ptr noundef %1) #0 {
  %3 = alloca ptr, align 8
  %4 = alloca ptr, align 8
  %5 = alloca ptr, align 8
  %6 = alloca i32, align 4
  store ptr %0, ptr %3, align 8, !tbaa !97
  store ptr %1, ptr %4, align 8, !tbaa !176
  call void @llvm.lifetime.start.p0(i64 8, ptr %5) #10
  %7 = load ptr, ptr %4, align 8, !tbaa !176
  %8 = getelementptr inbounds nuw %struct.HWMapDescriptor, ptr %7, i32 0, i32 3
  %9 = load ptr, ptr %8, align 8, !tbaa !178
  store ptr %9, ptr %5, align 8, !tbaa !181
  call void @llvm.lifetime.start.p0(i64 4, ptr %6) #10
  store i32 0, ptr %6, align 4, !tbaa !13
  br label %10

10:                                               ; preds = %25, %2
  %11 = load i32, ptr %6, align 4, !tbaa !13
  %12 = load ptr, ptr %5, align 8, !tbaa !181
  %13 = getelementptr inbounds nuw %struct.AVDRMFrameDescriptor, ptr %12, i32 0, i32 0
  %14 = load i32, ptr %13, align 8, !tbaa !183
  %15 = icmp slt i32 %11, %14
  br i1 %15, label %16, label %28

16:                                               ; preds = %10
  %17 = load ptr, ptr %5, align 8, !tbaa !181
  %18 = getelementptr inbounds nuw %struct.AVDRMFrameDescriptor, ptr %17, i32 0, i32 1
  %19 = load i32, ptr %6, align 4, !tbaa !13
  %20 = sext i32 %19 to i64
  %21 = getelementptr inbounds [4 x %struct.AVDRMObjectDescriptor], ptr %18, i64 0, i64 %20
  %22 = getelementptr inbounds nuw %struct.AVDRMObjectDescriptor, ptr %21, i32 0, i32 0
  %23 = load i32, ptr %22, align 8, !tbaa !193
  %24 = call i32 @close(i32 noundef %23)
  br label %25

25:                                               ; preds = %16
  %26 = load i32, ptr %6, align 4, !tbaa !13
  %27 = add nsw i32 %26, 1
  store i32 %27, ptr %6, align 4, !tbaa !13
  br label %10, !llvm.loop !253

28:                                               ; preds = %10
  call void @av_freep(ptr noundef %5)
  call void @llvm.lifetime.end.p0(i64 4, ptr %6) #10
  call void @llvm.lifetime.end.p0(i64 8, ptr %5) #10
  ret void
}