; Function Attrs: nounwind uwtable
define internal void @vaapi_unmap_to_drm_esh(ptr readnone captures(none) %0, ptr noundef readonly captures(none) %1) #0 {
  %3 = alloca ptr, align 8
  call void @llvm.lifetime.start.p0(i64 8, ptr nonnull %3) #11
  %4 = getelementptr inbounds nuw i8, ptr %1, i64 24
  %5 = load ptr, ptr %4, align 8, !tbaa !215
  store ptr %5, ptr %3, align 8, !tbaa !184
  %6 = load i32, ptr %5, align 8, !tbaa !132
  %7 = icmp sgt i32 %6, 0
  br i1 %7, label %.lr.ph, label %._crit_edge

.lr.ph:                                           ; preds = %2
  %8 = getelementptr inbounds nuw i8, ptr %5, i64 8
  br label %9

9:                                                ; preds = %.lr.ph, %9
  %indvars.iv = phi i64 [ 0, %.lr.ph ], [ %indvars.iv.next, %9 ]
  %10 = getelementptr inbounds nuw [4 x %struct.AVDRMObjectDescriptor], ptr %8, i64 0, i64 %indvars.iv
  %11 = load i32, ptr %10, align 8, !tbaa !142
  %12 = tail call i32 @close(i32 noundef %11) #11
  %indvars.iv.next = add nuw nsw i64 %indvars.iv, 1
  %13 = load i32, ptr %5, align 8, !tbaa !132
  %14 = sext i32 %13 to i64
  %15 = icmp slt i64 %indvars.iv.next, %14
  br i1 %15, label %9, label %._crit_edge, !llvm.loop !218

._crit_edge:                                      ; preds = %9, %2
  call void @av_freep(ptr noundef nonnull %3) #11
  call void @llvm.lifetime.end.p0(i64 8, ptr nonnull %3) #11
  ret void
}